; Function Attrs: nounwind sspstrong uwtable
define internal fastcc noundef ptr @dln_find_1(ptr noundef %0, ptr noundef %1, ptr noundef %2, i64 noundef %3, i32 noundef range(i32 0, 2) %4) unnamed_addr #0 {
  %6 = alloca %struct.stat, align 8
  call void @llvm.lifetime.start.p0(i64 144, ptr nonnull %6) #11
  %.not = icmp eq ptr %0, null
  br i1 %.not, label %.thread135, label %7

7:                                                ; preds = %5
  %8 = tail call i64 @strlen(ptr noundef nonnull dereferenceable(1) %0) #12
  %.not112 = icmp ult i64 %8, %3
  br i1 %.not112, label %14, label %9

9:                                                ; preds = %7
  %10 = icmp ugt i64 %8, 100
  %11 = tail call i64 @llvm.umin.i64(i64 %8, i64 100)
  %12 = trunc nuw nsw i64 %11 to i32
  %13 = select i1 %10, ptr @.str.4, ptr @.str.5
  tail call void (ptr, ...) @rb_warning(ptr noundef nonnull @.str.3, i32 noundef %12, ptr noundef nonnull %0, ptr noundef nonnull %13) #11
  br label %.thread135

14:                                               ; preds = %7
  %15 = load i8, ptr %0, align 1, !tbaa !7
  %16 = icmp eq i8 %15, 46
  br i1 %16, label %17, label %22

17:                                               ; preds = %14
  %18 = getelementptr i8, ptr %0, i64 1
  %19 = load i8, ptr %18, align 1, !tbaa !7
  %20 = icmp eq i8 %19, 46
  %21 = getelementptr i8, ptr %0, i64 2
  %spec.select = select i1 %20, ptr %21, ptr %18
  %.pr = load i8, ptr %spec.select, align 1, !tbaa !7
  br label %22

22:                                               ; preds = %17, %14
  %23 = phi i8 [ %.pr, %17 ], [ %15, %14 ]
  %24 = icmp eq i8 %23, 47
  br i1 %24, label %.thread135, label %25

25:                                               ; preds = %22
  %.not113 = icmp eq i32 %4, 0
  br i1 %.not113, label %28, label %26

26:                                               ; preds = %25
  %27 = tail call ptr @strchr(ptr noundef nonnull dereferenceable(1) %0, i32 noundef 47) #12
  %.not114 = icmp eq ptr %27, null
  br i1 %.not114, label %28, label %.thread135

28:                                               ; preds = %26, %25
  %29 = add i64 %3, -2
  %30 = add nuw i64 %8, 1
  %31 = getelementptr inbounds nuw i8, ptr %6, i64 24
  %32 = ptrtoint ptr %2 to i64
  %33 = icmp ugt i64 %8, 100
  %34 = tail call i64 @llvm.umin.i64(i64 %8, i64 100)
  %35 = trunc nuw nsw i64 %34 to i32
  %36 = select i1 %33, ptr @.str.4, ptr @.str.5
  br label %37

37:                                               ; preds = %96, %28
  %.092 = phi ptr [ %1, %28 ], [ %98, %96 ]
  %38 = tail call ptr @strchr(ptr noundef nonnull dereferenceable(1) %.092, i32 noundef 58) #12
  %39 = icmp eq ptr %38, null
  br i1 %39, label %40, label %43

40:                                               ; preds = %37
  %41 = tail call i64 @strlen(ptr noundef nonnull dereferenceable(1) %.092) #12
  %42 = getelementptr i8, ptr %.092, i64 %41
  br label %43

43:                                               ; preds = %40, %37
  %.0100 = phi ptr [ %42, %40 ], [ %38, %37 ]
  %44 = ptrtoint ptr %.0100 to i64
  %45 = ptrtoint ptr %.092 to i64
  %46 = sub i64 %44, %45
  %.not115 = icmp eq i64 %46, 0
  br i1 %.not115, label %76, label %47

47:                                               ; preds = %43
  %48 = load i8, ptr %.092, align 1, !tbaa !7
  %49 = icmp eq i8 %48, 126
  br i1 %49, label %50, label %.thread124

50:                                               ; preds = %47
  %51 = icmp eq i64 %46, 1
  br i1 %51, label %56, label %52

52:                                               ; preds = %50
  %53 = getelementptr i8, ptr %.092, i64 1
  %54 = load i8, ptr %53, align 1, !tbaa !7
  %55 = icmp eq i8 %54, 47
  br i1 %55, label %56, label %.thread124

56:                                               ; preds = %52, %50
  %57 = tail call ptr @getenv(ptr noundef nonnull @.str.7) #11
  %.not116 = icmp eq ptr %57, null
  br i1 %.not116, label %64, label %58

58:                                               ; preds = %56
  %59 = tail call i64 @strlen(ptr noundef nonnull dereferenceable(1) %57) #12
  %60 = icmp ult i64 %29, %59
  br i1 %60, label %89, label %61

61:                                               ; preds = %58
  %62 = sub nuw i64 %29, %59
  tail call void @llvm.memcpy.p0.p0.i64(ptr noundef nonnull align 1 %2, ptr noundef nonnull align 1 %57, i64 noundef %59, i1 noundef false) #11
  %63 = getelementptr i8, ptr %2, i64 %59
  br label %64

64:                                               ; preds = %56, %61
  %.297 = phi ptr [ %63, %61 ], [ %2, %56 ]
  %.291 = phi i64 [ %62, %61 ], [ %29, %56 ]
  %65 = getelementptr i8, ptr %.092, i64 1
  %66 = add i64 %46, -1
  %.not117 = icmp eq i64 %66, 0
  br i1 %.not117, label %71, label %.thread124

.thread124:                                       ; preds = %47, %52, %64
  %.084133 = phi i64 [ %66, %64 ], [ %46, %52 ], [ %46, %47 ]
  %.190132 = phi i64 [ %.291, %64 ], [ %29, %52 ], [ %29, %47 ]
  %.193131 = phi ptr [ %65, %64 ], [ %.092, %52 ], [ %.092, %47 ]
  %.196130 = phi ptr [ %.297, %64 ], [ %2, %52 ], [ %2, %47 ]
  %67 = icmp ult i64 %.190132, %.084133
  br i1 %67, label %89, label %68

68:                                               ; preds = %.thread124
  %69 = sub nuw i64 %.190132, %.084133
  tail call void @llvm.memcpy.p0.p0.i64(ptr noundef nonnull align 1 %.196130, ptr noundef nonnull align 1 %.193131, i64 noundef %.084133, i1 noundef false) #11
  %70 = getelementptr i8, ptr %.196130, i64 %.084133
  br label %71

71:                                               ; preds = %68, %64
  %.5 = phi ptr [ %70, %68 ], [ %.297, %64 ]
  %.4 = phi i64 [ %69, %68 ], [ %.291, %64 ]
  %72 = getelementptr i8, ptr %.0100, i64 -1
  %73 = load i8, ptr %72, align 1, !tbaa !7
  %.not118 = icmp eq i8 %73, 47
  br i1 %.not118, label %76, label %74

74:                                               ; preds = %71
  %75 = getelementptr i8, ptr %.5, i64 1
  store i8 47, ptr %.5, align 1, !tbaa !7
  br label %76

76:                                               ; preds = %71, %74, %43
  %.095 = phi ptr [ %75, %74 ], [ %.5, %71 ], [ %2, %43 ]
  %.089 = phi i64 [ %.4, %74 ], [ %.4, %71 ], [ %29, %43 ]
  %77 = icmp ult i64 %.089, %8
  br i1 %77, label %89, label %78

78:                                               ; preds = %76
  tail call void @llvm.memcpy.p0.p0.i64(ptr noundef nonnull align 1 dereferenceable(1) %.095, ptr noundef nonnull align 1 dereferenceable(1) %0, i64 noundef %30, i1 noundef false) #11
  %79 = call i32 @stat(ptr noundef %2, ptr noundef nonnull %6) #11
  %80 = icmp eq i32 %79, 0
  br i1 %80, label %81, label %96

81:                                               ; preds = %78
  %82 = load i32, ptr %31, align 8, !tbaa !10
  %83 = and i32 %82, 61440
  %84 = icmp eq i32 %83, 32768
  br i1 %84, label %85, label %96

85:                                               ; preds = %81
  br i1 %.not113, label %.thread135, label %86

86:                                               ; preds = %85
  %87 = tail call i32 @eaccess(ptr noundef %2, i32 noundef 1) #11
  %88 = icmp eq i32 %87, 0
  br i1 %88, label %.thread135, label %96

89:                                               ; preds = %58, %76, %.thread124
  %.499 = phi ptr [ %.196130, %.thread124 ], [ %.095, %76 ], [ %2, %58 ]
  %90 = ptrtoint ptr %.499 to i64
  %91 = sub i64 %90, %32
  %92 = icmp sgt i64 %91, 100
  %93 = tail call i64 @llvm.smin.i64(i64 %91, i64 100)
  %94 = trunc i64 %93 to i32
  %95 = select i1 %92, ptr @.str.4, ptr @.str.5
  tail call void (ptr, ...) @rb_warning(ptr noundef nonnull @dln_find_1.pathname_too_long, i32 noundef %94, ptr noundef %2, ptr noundef nonnull %95, i32 noundef %35, ptr noundef nonnull %0, ptr noundef nonnull %36) #11
  br label %96

96:                                               ; preds = %89, %86, %81, %78
  %97 = load i8, ptr %.0100, align 1, !tbaa !7
  %.not138 = icmp eq i8 %97, 0
  %98 = getelementptr i8, ptr %.0100, i64 1
  br i1 %.not138, label %.thread135, label %37

.thread135:                                       ; preds = %86, %85, %96, %26, %22, %5, %9
  %.0 = phi ptr [ null, %9 ], [ null, %5 ], [ %0, %22 ], [ %0, %26 ], [ %2, %86 ], [ %2, %85 ], [ null, %96 ]
  call void @llvm.lifetime.end.p0(i64 144, ptr nonnull %6) #11
  ret ptr %.0
}